; Function Attrs: nounwind uwtable
define internal fastcc range(i32 -2147483648, 1) i32 @parse_label(ptr noundef %0, ptr noundef nonnull captures(none) %1, ptr noundef nonnull %2) unnamed_addr #2 {
  %4 = alloca i8, align 1
  %5 = alloca i8, align 1
  tail call void @av_bprint_init(ptr noundef nonnull %2, i32 noundef 0, i32 noundef 1) #7
  %6 = tail call fastcc i32 @parse_string(ptr noundef %0, ptr noundef %1, ptr noundef %2, i32 noundef 0)
  %7 = icmp slt i32 %6, 0
  br i1 %7, label %select.unfold, label %8

8:                                                ; preds = %3
  %.pr.i.i = load i32, ptr %1, align 4, !tbaa !31
  br label %9

9:                                                ; preds = %.critedge.i.i, %8
  %10 = phi i32 [ %17, %.critedge.i.i ], [ %.pr.i.i, %8 ]
  switch i32 %10, label %18 [
    i32 32, label %.critedge.i.i
    i32 9, label %.critedge.i.i
    i32 10, label %.critedge.i.i
    i32 13, label %.critedge.i.i
    i32 58, label %expect_byte.exit
  ]

.critedge.i.i:                                    ; preds = %9, %9, %9, %9
  call void @llvm.lifetime.start.p0(i64 1, ptr nonnull %5) #7
  %11 = call i32 @avio_read(ptr noundef %0, ptr noundef nonnull %5, i32 noundef 1) #7
  %12 = icmp sgt i32 %11, 0
  %13 = load i8, ptr %5, align 1
  %14 = zext i8 %13 to i32
  %15 = icmp eq i32 %11, 0
  %16 = select i1 %15, i32 -541478725, i32 %11
  %17 = select i1 %12, i32 %14, i32 %16
  store i32 %17, ptr %1, align 4, !tbaa !31
  call void @llvm.lifetime.end.p0(i64 1, ptr nonnull %5) #7
  br label %9, !llvm.loop !76

18:                                               ; preds = %9
  %19 = icmp slt i32 %10, 0
  %spec.select = select i1 %19, i32 %10, i32 -1094995529
  br label %select.unfold

expect_byte.exit:                                 ; preds = %9
  call void @llvm.lifetime.start.p0(i64 1, ptr nonnull %4) #7
  %20 = call i32 @avio_read(ptr noundef %0, ptr noundef nonnull %4, i32 noundef 1) #7
  %21 = icmp sgt i32 %20, 0
  %22 = load i8, ptr %4, align 1
  %23 = zext i8 %22 to i32
  %24 = icmp eq i32 %20, 0
  %25 = select i1 %24, i32 -541478725, i32 %20
  %26 = select i1 %21, i32 %23, i32 %25
  store i32 %26, ptr %1, align 4, !tbaa !31
  call void @llvm.lifetime.end.p0(i64 1, ptr nonnull %4) #7
  br label %select.unfold

select.unfold:                                    ; preds = %18, %expect_byte.exit, %3
  %.0 = phi i32 [ %6, %3 ], [ 0, %expect_byte.exit ], [ %spec.select, %18 ]
  ret i32 %.0
}